; Function Attrs: mustprogress uwtable
define dso_local void @_ZN21ParserTest_Empty_Test8TestBodyEv(ptr noundef nonnull align 8 dereferenceable(480) %0) unnamed_addr #4 align 2 personality ptr @__gxx_personality_v0 {
  %2 = alloca %"class.testing::internal::HasNewFatalFailureHelper", align 8
  %3 = alloca %"class.testing::Message", align 8
  %4 = alloca %"class.testing::internal::AssertHelper", align 8
  %5 = tail call noundef zeroext i1 @_ZN7testing8internal10AlwaysTrueEv()
  br i1 %5, label %6, label %16

6:                                                ; preds = %1
  call void @llvm.lifetime.start.p0(i64 24, ptr nonnull %2) #20
  call void @_ZN7testing8internal24HasNewFatalFailureHelperC1Ev(ptr noundef nonnull align 8 dereferenceable(24) %2)
  %7 = invoke noundef zeroext i1 @_ZN7testing8internal10AlwaysTrueEv()
          to label %8 unwind label %10

8:                                                ; preds = %6
  br i1 %7, label %9, label %12

9:                                                ; preds = %8
  invoke void @_ZN10ParserTest11AssertParseEPKc(ptr noundef nonnull align 8 dereferenceable(480) %0, ptr noundef nonnull @.str.4)
          to label %12 unwind label %10

10:                                               ; preds = %9, %6
  %11 = landingpad { ptr, i32 }
          cleanup
  call void @_ZN7testing8internal24HasNewFatalFailureHelperD1Ev(ptr noundef nonnull align 8 dereferenceable(24) %2) #20
  call void @llvm.lifetime.end.p0(i64 24, ptr nonnull %2) #20
  br label %33

12:                                               ; preds = %8, %9
  %13 = getelementptr inbounds nuw i8, ptr %2, i64 8
  %14 = load i8, ptr %13, align 8, !tbaa !20, !range !25, !noundef !26
  %15 = trunc nuw i8 %14 to i1
  call void @_ZN7testing8internal24HasNewFatalFailureHelperD1Ev(ptr noundef nonnull align 8 dereferenceable(24) %2) #20
  call void @llvm.lifetime.end.p0(i64 24, ptr nonnull %2) #20
  br i1 %15, label %16, label %32

16:                                               ; preds = %12, %1
  call void @llvm.lifetime.start.p0(i64 8, ptr nonnull %3) #20
  call void @_ZN7testing7MessageC1Ev(ptr noundef nonnull align 8 dereferenceable(8) %3)
  call void @llvm.lifetime.start.p0(i64 8, ptr nonnull %4) #20
  invoke void @_ZN7testing8internal12AssertHelperC1ENS_14TestPartResult4TypeEPKciS5_(ptr noundef nonnull align 8 dereferenceable(8) %4, i32 noundef 2, ptr noundef nonnull @.str.3, i32 noundef 40, ptr noundef nonnull @.str.5)
          to label %17 unwind label %23

17:                                               ; preds = %16
  invoke void @_ZNK7testing8internal12AssertHelperaSERKNS_7MessageE(ptr noundef nonnull align 8 dereferenceable(8) %4, ptr noundef nonnull align 8 dereferenceable(8) %3)
          to label %18 unwind label %25

18:                                               ; preds = %17
  call void @_ZN7testing8internal12AssertHelperD1Ev(ptr noundef nonnull align 8 dereferenceable(8) %4) #20
  call void @llvm.lifetime.end.p0(i64 8, ptr nonnull %4) #20
  %19 = load ptr, ptr %3, align 8, !tbaa !27
  %.not.i.i = icmp eq ptr %19, null
  br i1 %.not.i.i, label %_ZN7testing7MessageD2Ev.exit, label %_ZNKSt14default_deleteINSt7__cxx1118basic_stringstreamIcSt11char_traitsIcESaIcEEEEclEPS5_.exit.i.i

_ZNKSt14default_deleteINSt7__cxx1118basic_stringstreamIcSt11char_traitsIcESaIcEEEEclEPS5_.exit.i.i: ; preds = %18
  %20 = load ptr, ptr %19, align 8, !tbaa !4
  %21 = getelementptr inbounds nuw i8, ptr %20, i64 8
  %22 = load ptr, ptr %21, align 8
  call void %22(ptr noundef nonnull align 8 dereferenceable(128) %19) #20
  br label %_ZN7testing7MessageD2Ev.exit

_ZN7testing7MessageD2Ev.exit:                     ; preds = %18, %_ZNKSt14default_deleteINSt7__cxx1118basic_stringstreamIcSt11char_traitsIcESaIcEEEEclEPS5_.exit.i.i
  call void @llvm.lifetime.end.p0(i64 8, ptr nonnull %3) #20
  br label %32

23:                                               ; preds = %16
  %24 = landingpad { ptr, i32 }
          cleanup
  br label %27

25:                                               ; preds = %17
  %26 = landingpad { ptr, i32 }
          cleanup
  call void @_ZN7testing8internal12AssertHelperD1Ev(ptr noundef nonnull align 8 dereferenceable(8) %4) #20
  br label %27

27:                                               ; preds = %25, %23
  %.pn = phi { ptr, i32 } [ %26, %25 ], [ %24, %23 ]
  call void @llvm.lifetime.end.p0(i64 8, ptr nonnull %4) #20
  %28 = load ptr, ptr %3, align 8, !tbaa !27
  %.not.i.i8 = icmp eq ptr %28, null
  br i1 %.not.i.i8, label %_ZN7testing7MessageD2Ev.exit10, label %_ZNKSt14default_deleteINSt7__cxx1118basic_stringstreamIcSt11char_traitsIcESaIcEEEEclEPS5_.exit.i.i9

_ZNKSt14default_deleteINSt7__cxx1118basic_stringstreamIcSt11char_traitsIcESaIcEEEEclEPS5_.exit.i.i9: ; preds = %27
  %29 = load ptr, ptr %28, align 8, !tbaa !4
  %30 = getelementptr inbounds nuw i8, ptr %29, i64 8
  %31 = load ptr, ptr %30, align 8
  call void %31(ptr noundef nonnull align 8 dereferenceable(128) %28) #20
  br label %_ZN7testing7MessageD2Ev.exit10

_ZN7testing7MessageD2Ev.exit10:                   ; preds = %27, %_ZNKSt14default_deleteINSt7__cxx1118basic_stringstreamIcSt11char_traitsIcESaIcEEEEclEPS5_.exit.i.i9
  call void @llvm.lifetime.end.p0(i64 8, ptr nonnull %3) #20
  br label %33

32:                                               ; preds = %12, %_ZN7testing7MessageD2Ev.exit
  ret void

33:                                               ; preds = %_ZN7testing7MessageD2Ev.exit10, %10
  %.pn.pn = phi { ptr, i32 } [ %.pn, %_ZN7testing7MessageD2Ev.exit10 ], [ %11, %10 ]
  resume { ptr, i32 } %.pn.pn
}